; Function Attrs: mustprogress uwtable
define void @_ZN6casadi4Opti10subject_toERKNS_2MXE(ptr noundef nonnull align 8 dereferenceable(8) %0, ptr noundef nonnull align 8 dereferenceable(8) %1) local_unnamed_addr #3 align 2 personality ptr @__gxx_personality_v0 {
  %3 = alloca %"class.std::__cxx11::basic_string", align 8
  %4 = alloca %"class.std::__cxx11::basic_string", align 8
  %5 = alloca %"class.std::__cxx11::basic_string", align 8
  %6 = alloca %"class.std::__cxx11::basic_string", align 8
  %7 = alloca %"class.std::__cxx11::basic_string", align 8
  %8 = alloca %"class.std::__cxx11::basic_string", align 8
  %9 = alloca %"class.std::__cxx11::basic_string", align 8
  %10 = alloca %"class.std::__cxx11::basic_string", align 8
  %11 = alloca %"class.std::allocator.35", align 1
  %12 = alloca %"class.std::__cxx11::basic_string", align 8
  %13 = alloca %"class.std::allocator.35", align 1
  %14 = invoke noundef ptr @_ZNK6casadi12SharedObjectptEv(ptr noundef nonnull align 8 dereferenceable(8) %0)
          to label %_ZN6casadi4OptiptEv.exit unwind label %15

_ZN6casadi4OptiptEv.exit:                         ; preds = %2
  invoke void @_ZN6casadi8OptiNode10subject_toERKNS_2MXE(ptr noundef nonnull align 8 dereferenceable(672) %14, ptr noundef nonnull align 8 dereferenceable(8) %1)
          to label %68 unwind label %15

15:                                               ; preds = %2, %_ZN6casadi4OptiptEv.exit
  %16 = landingpad { ptr, i32 }
          catch ptr @_ZTISt9exception
  %17 = extractvalue { ptr, i32 } %16, 1
  %18 = tail call i32 @llvm.eh.typeid.for(ptr nonnull @_ZTISt9exception) #17
  %19 = icmp eq i32 %17, %18
  br i1 %19, label %20, label %69

20:                                               ; preds = %15
  %21 = extractvalue { ptr, i32 } %16, 0
  %22 = tail call ptr @__cxa_begin_catch(ptr %21) #17
  %23 = tail call ptr @__cxa_allocate_exception(i64 40) #17
  invoke void @_ZNK6casadi12SharedObject10class_nameB5cxx11Ev(ptr dead_on_unwind nonnull writable sret(%"class.std::__cxx11::basic_string") align 8 %8, ptr noundef nonnull align 8 dereferenceable(8) %0)
          to label %24 unwind label %.thread

24:                                               ; preds = %20
  %25 = invoke noundef nonnull align 8 dereferenceable(32) ptr @_ZNSt7__cxx1112basic_stringIcSt11char_traitsIcESaIcEE6insertEmPKc(ptr noundef nonnull align 8 dereferenceable(32) %8, i64 noundef 0, ptr noundef nonnull @.str.8)
          to label %26 unwind label %.thread42

26:                                               ; preds = %24
  call void @_ZNSt7__cxx1112basic_stringIcSt11char_traitsIcESaIcEEC1EOS4_(ptr noundef nonnull align 8 dereferenceable(32) %7, ptr noundef nonnull align 8 dereferenceable(32) %25) #17
  %27 = invoke noundef nonnull align 8 dereferenceable(32) ptr @_ZNSt7__cxx1112basic_stringIcSt11char_traitsIcESaIcEE6appendEPKc(ptr noundef nonnull align 8 dereferenceable(32) %7, ptr noundef nonnull @.str.1)
          to label %28 unwind label %43

28:                                               ; preds = %26
  call void @_ZNSt7__cxx1112basic_stringIcSt11char_traitsIcESaIcEEC1EOS4_(ptr noundef nonnull align 8 dereferenceable(32) %6, ptr noundef nonnull align 8 dereferenceable(32) %27) #17
  call void @_ZNSaIcEC1Ev(ptr noundef nonnull align 1 dereferenceable(1) %11) #17
  invoke void @_ZNSt7__cxx1112basic_stringIcSt11char_traitsIcESaIcEEC2IS3_EEPKcRKS3_(ptr noundef nonnull align 8 dereferenceable(32) %10, ptr noundef nonnull @.str.9, ptr noundef nonnull align 1 dereferenceable(1) %11)
          to label %29 unwind label %45

29:                                               ; preds = %28
  invoke void @_ZN6casadi9trim_pathERKNSt7__cxx1112basic_stringIcSt11char_traitsIcESaIcEEE(ptr dead_on_unwind nonnull writable sret(%"class.std::__cxx11::basic_string") align 8 %9, ptr noundef nonnull align 8 dereferenceable(32) %10)
          to label %30 unwind label %47

30:                                               ; preds = %29
  invoke void @_ZStplIcSt11char_traitsIcESaIcEENSt7__cxx1112basic_stringIT_T0_T1_EEOS8_S9_(ptr dead_on_unwind nonnull writable sret(%"class.std::__cxx11::basic_string") align 8 %5, ptr noundef nonnull align 8 dereferenceable(32) %6, ptr noundef nonnull align 8 dereferenceable(32) %9)
          to label %31 unwind label %49

31:                                               ; preds = %30
  %32 = invoke noundef nonnull align 8 dereferenceable(32) ptr @_ZNSt7__cxx1112basic_stringIcSt11char_traitsIcESaIcEE6appendEPKc(ptr noundef nonnull align 8 dereferenceable(32) %5, ptr noundef nonnull @.str.3)
          to label %33 unwind label %51

33:                                               ; preds = %31
  call void @_ZNSt7__cxx1112basic_stringIcSt11char_traitsIcESaIcEEC1EOS4_(ptr noundef nonnull align 8 dereferenceable(32) %4, ptr noundef nonnull align 8 dereferenceable(32) %32) #17
  %34 = load ptr, ptr %22, align 8
  %35 = getelementptr inbounds i8, ptr %34, i64 16
  %36 = load ptr, ptr %35, align 8
  %37 = call noundef ptr %36(ptr noundef nonnull align 8 dereferenceable(8) %22) #17
  call void @_ZNSaIcEC1Ev(ptr noundef nonnull align 1 dereferenceable(1) %13) #17
  invoke void @_ZNSt7__cxx1112basic_stringIcSt11char_traitsIcESaIcEEC2IS3_EEPKcRKS3_(ptr noundef nonnull align 8 dereferenceable(32) %12, ptr noundef %37, ptr noundef nonnull align 1 dereferenceable(1) %13)
          to label %38 unwind label %53

38:                                               ; preds = %33
  invoke void @_ZStplIcSt11char_traitsIcESaIcEENSt7__cxx1112basic_stringIT_T0_T1_EEOS8_S9_(ptr dead_on_unwind nonnull writable sret(%"class.std::__cxx11::basic_string") align 8 %3, ptr noundef nonnull align 8 dereferenceable(32) %4, ptr noundef nonnull align 8 dereferenceable(32) %12)
          to label %39 unwind label %55

39:                                               ; preds = %38
  invoke void @_ZN6casadi15CasadiExceptionC2ERKNSt7__cxx1112basic_stringIcSt11char_traitsIcESaIcEEE(ptr noundef nonnull align 8 dereferenceable(40) %23, ptr noundef nonnull align 8 dereferenceable(32) %3)
          to label %40 unwind label %57

40:                                               ; preds = %39
  invoke void @__cxa_throw(ptr nonnull %23, ptr nonnull @_ZTIN6casadi15CasadiExceptionE, ptr nonnull @_ZN6casadi15CasadiExceptionD2Ev) #18
          to label %73 unwind label %57

.thread:                                          ; preds = %20
  %41 = landingpad { ptr, i32 }
          cleanup
  br label %66

.thread42:                                        ; preds = %24
  %42 = landingpad { ptr, i32 }
          cleanup
  call void @_ZNSt7__cxx1112basic_stringIcSt11char_traitsIcESaIcEED1Ev(ptr noundef nonnull align 8 dereferenceable(32) %8) #17
  br label %66

43:                                               ; preds = %26
  %44 = landingpad { ptr, i32 }
          cleanup
  br label %65

45:                                               ; preds = %28
  %46 = landingpad { ptr, i32 }
          cleanup
  br label %64

47:                                               ; preds = %29
  %48 = landingpad { ptr, i32 }
          cleanup
  br label %63

49:                                               ; preds = %30
  %50 = landingpad { ptr, i32 }
          cleanup
  br label %62

51:                                               ; preds = %31
  %52 = landingpad { ptr, i32 }
          cleanup
  br label %61

53:                                               ; preds = %33
  %54 = landingpad { ptr, i32 }
          cleanup
  br label %60

55:                                               ; preds = %38
  %56 = landingpad { ptr, i32 }
          cleanup
  br label %59

57:                                               ; preds = %40, %39
  %.0 = phi i1 [ false, %40 ], [ true, %39 ]
  %58 = landingpad { ptr, i32 }
          cleanup
  call void @_ZNSt7__cxx1112basic_stringIcSt11char_traitsIcESaIcEED1Ev(ptr noundef nonnull align 8 dereferenceable(32) %3) #17
  br label %59

59:                                               ; preds = %57, %55
  %.pn = phi { ptr, i32 } [ %58, %57 ], [ %56, %55 ]
  %.1 = phi i1 [ %.0, %57 ], [ true, %55 ]
  call void @_ZNSt7__cxx1112basic_stringIcSt11char_traitsIcESaIcEED1Ev(ptr noundef nonnull align 8 dereferenceable(32) %12) #17
  br label %60

60:                                               ; preds = %59, %53
  %.pn.pn = phi { ptr, i32 } [ %.pn, %59 ], [ %54, %53 ]
  %.2 = phi i1 [ %.1, %59 ], [ true, %53 ]
  call void @_ZNSaIcED1Ev(ptr noundef nonnull align 1 dereferenceable(1) %13) #17
  call void @_ZNSt7__cxx1112basic_stringIcSt11char_traitsIcESaIcEED1Ev(ptr noundef nonnull align 8 dereferenceable(32) %4) #17
  br label %61

61:                                               ; preds = %60, %51
  %.pn.pn.pn = phi { ptr, i32 } [ %.pn.pn, %60 ], [ %52, %51 ]
  %.3 = phi i1 [ %.2, %60 ], [ true, %51 ]
  call void @_ZNSt7__cxx1112basic_stringIcSt11char_traitsIcESaIcEED1Ev(ptr noundef nonnull align 8 dereferenceable(32) %5) #17
  br label %62

62:                                               ; preds = %61, %49
  %.pn.pn.pn.pn = phi { ptr, i32 } [ %.pn.pn.pn, %61 ], [ %50, %49 ]
  %.4 = phi i1 [ %.3, %61 ], [ true, %49 ]
  call void @_ZNSt7__cxx1112basic_stringIcSt11char_traitsIcESaIcEED1Ev(ptr noundef nonnull align 8 dereferenceable(32) %9) #17
  br label %63

63:                                               ; preds = %62, %47
  %.pn.pn.pn.pn.pn = phi { ptr, i32 } [ %.pn.pn.pn.pn, %62 ], [ %48, %47 ]
  %.5 = phi i1 [ %.4, %62 ], [ true, %47 ]
  call void @_ZNSt7__cxx1112basic_stringIcSt11char_traitsIcESaIcEED1Ev(ptr noundef nonnull align 8 dereferenceable(32) %10) #17
  br label %64

64:                                               ; preds = %63, %45
  %.pn.pn.pn.pn.pn.pn = phi { ptr, i32 } [ %.pn.pn.pn.pn.pn, %63 ], [ %46, %45 ]
  %.6 = phi i1 [ %.5, %63 ], [ true, %45 ]
  call void @_ZNSaIcED1Ev(ptr noundef nonnull align 1 dereferenceable(1) %11) #17
  call void @_ZNSt7__cxx1112basic_stringIcSt11char_traitsIcESaIcEED1Ev(ptr noundef nonnull align 8 dereferenceable(32) %6) #17
  br label %65

65:                                               ; preds = %43, %64
  %.pn.pn.pn.pn.pn.pn.pn = phi { ptr, i32 } [ %.pn.pn.pn.pn.pn.pn, %64 ], [ %44, %43 ]
  %.7 = phi i1 [ %.6, %64 ], [ true, %43 ]
  call void @_ZNSt7__cxx1112basic_stringIcSt11char_traitsIcESaIcEED1Ev(ptr noundef nonnull align 8 dereferenceable(32) %7) #17
  call void @_ZNSt7__cxx1112basic_stringIcSt11char_traitsIcESaIcEED1Ev(ptr noundef nonnull align 8 dereferenceable(32) %8) #17
  br i1 %.7, label %66, label %67

66:                                               ; preds = %.thread42, %.thread, %65
  %.pn.pn.pn.pn.pn.pn.pn.pn.pn41 = phi { ptr, i32 } [ %41, %.thread ], [ %.pn.pn.pn.pn.pn.pn.pn, %65 ], [ %42, %.thread42 ]
  call void @__cxa_free_exception(ptr %23) #17
  br label %67

67:                                               ; preds = %66, %65
  %.pn.pn.pn.pn.pn.pn.pn.pn.pn40 = phi { ptr, i32 } [ %.pn.pn.pn.pn.pn.pn.pn.pn.pn41, %66 ], [ %.pn.pn.pn.pn.pn.pn.pn, %65 ]
  invoke void @__cxa_end_catch()
          to label %69 unwind label %70

68:                                               ; preds = %_ZN6casadi4OptiptEv.exit
  ret void

69:                                               ; preds = %67, %15
  %.merged = phi { ptr, i32 } [ %.pn.pn.pn.pn.pn.pn.pn.pn.pn40, %67 ], [ %16, %15 ]
  resume { ptr, i32 } %.merged

70:                                               ; preds = %67
  %71 = landingpad { ptr, i32 }
          catch ptr null
  %72 = extractvalue { ptr, i32 } %71, 0
  call void @__clang_call_terminate(ptr %72) #19
  unreachable

73:                                               ; preds = %40
  unreachable
}